; Function Attrs: nounwind uwtable
define dso_local void @ExecIndexScanEstimate(ptr noundef captures(none) initializes((368, 376)) %0, ptr noundef captures(none) %1) local_unnamed_addr #0 {
  %3 = getelementptr inbounds nuw i8, ptr %0, i64 16
  %4 = load ptr, ptr %3, align 8
  %5 = getelementptr inbounds nuw i8, ptr %0, i64 296
  %6 = load ptr, ptr %5, align 8
  %7 = getelementptr inbounds nuw i8, ptr %0, i64 248
  %8 = load i32, ptr %7, align 8
  %9 = getelementptr inbounds nuw i8, ptr %0, i64 264
  %10 = load i32, ptr %9, align 8
  %11 = getelementptr inbounds nuw i8, ptr %4, i64 8
  %12 = load ptr, ptr %11, align 8
  %13 = tail call i64 @index_parallelscan_estimate(ptr noundef %6, i32 noundef %8, i32 noundef %10, ptr noundef %12) #7
  %14 = getelementptr inbounds nuw i8, ptr %0, i64 368
  store i64 %13, ptr %14, align 8
  %15 = getelementptr inbounds nuw i8, ptr %1, i64 56
  %16 = load i64, ptr %15, align 8
  %17 = add i64 %13, 31
  %18 = and i64 %17, -32
  %19 = tail call i64 @add_size(i64 noundef %16, i64 noundef %18) #7
  store i64 %19, ptr %15, align 8
  %20 = getelementptr inbounds nuw i8, ptr %1, i64 64
  %21 = load i64, ptr %20, align 8
  %22 = tail call i64 @add_size(i64 noundef %21, i64 noundef 1) #7
  store i64 %22, ptr %20, align 8
  ret void
}